target datalayout = "e-m:e-p270:32:32-p271:32:32-p272:64:64-i64:64-i128:128-f80:128-n8:16:32:64-S128"
target triple = "x86_64-pc-linux-gnu"

%struct.crypto_ex_data_st = type { ptr }
%struct.ssl_st = type { i32, i16, i16, ptr, ptr, ptr, ptr, ptr, i32, i32, ptr, ptr, i32, i32, ptr, ptr, ptr, ptr, ptr, ptr, ptr, ptr, i32, i32, [32 x i8], ptr, ptr, ptr, ptr, ptr, ptr, ptr, i64, %struct.crypto_ex_data_st, ptr, i32, i32, i32, i32, i16, ptr, i32, i64, ptr, ptr, ptr, ptr, ptr, ptr, i32, i32, ptr, ptr, i8, i8, i32 }
%struct.cert_st = type { ptr, ptr, ptr, ptr, i32, i32, ptr, ptr, ptr, i64, ptr, i64, ptr, ptr, ptr }

@.str = private unnamed_addr constant [117 x i8] c"generated/home/dtcxzyw/WorkSpace/Projects/compilers/llvm-opt-benchmark/bench/libquic/libquic/boringssl/ssl/ssl_lib.c\00", align 1

; Function Attrs: nounwind uwtable
define hidden i32 @SSL_check_private_key(ptr noundef %0) #0 {
  %2 = alloca i32, align 4
  %3 = alloca ptr, align 8
  store ptr %0, ptr %3, align 8, !tbaa !80
  %4 = load ptr, ptr %3, align 8, !tbaa !80
  %5 = getelementptr inbounds nuw %struct.ssl_st, ptr %4, i32 0, i32 21
  %6 = load ptr, ptr %5, align 8, !tbaa !96
  %7 = getelementptr inbounds nuw %struct.cert_st, ptr %6, i32 0, i32 0
  %8 = load ptr, ptr %7, align 8, !tbaa !185
  %9 = icmp eq ptr %8, null
  br i1 %9, label %10, label %11

10:                                               ; preds = %1
  call void @ERR_put_error(i32 noundef 16, i32 noundef 0, i32 noundef 173, ptr noundef @.str, i32 noundef 1169)
  store i32 0, ptr %2, align 4
  br label %31

11:                                               ; preds = %1
  %12 = load ptr, ptr %3, align 8, !tbaa !80
  %13 = getelementptr inbounds nuw %struct.ssl_st, ptr %12, i32 0, i32 21
  %14 = load ptr, ptr %13, align 8, !tbaa !96
  %15 = getelementptr inbounds nuw %struct.cert_st, ptr %14, i32 0, i32 1
  %16 = load ptr, ptr %15, align 8, !tbaa !191
  %17 = icmp eq ptr %16, null
  br i1 %17, label %18, label %19

18:                                               ; preds = %11
  call void @ERR_put_error(i32 noundef 16, i32 noundef 0, i32 noundef 181, ptr noundef @.str, i32 noundef 1174)
  store i32 0, ptr %2, align 4
  br label %31

19:                                               ; preds = %11
  %20 = load ptr, ptr %3, align 8, !tbaa !80
  %21 = getelementptr inbounds nuw %struct.ssl_st, ptr %20, i32 0, i32 21
  %22 = load ptr, ptr %21, align 8, !tbaa !96
  %23 = getelementptr inbounds nuw %struct.cert_st, ptr %22, i32 0, i32 0
  %24 = load ptr, ptr %23, align 8, !tbaa !185
  %25 = load ptr, ptr %3, align 8, !tbaa !80
  %26 = getelementptr inbounds nuw %struct.ssl_st, ptr %25, i32 0, i32 21
  %27 = load ptr, ptr %26, align 8, !tbaa !96
  %28 = getelementptr inbounds nuw %struct.cert_st, ptr %27, i32 0, i32 1
  %29 = load ptr, ptr %28, align 8, !tbaa !191
  %30 = call i32 @X509_check_private_key(ptr noundef %24, ptr noundef %29)
  store i32 %30, ptr %2, align 4
  br label %31

31:                                               ; preds = %19, %18, %10
  %32 = load i32, ptr %2, align 4
  ret i32 %32
}